; Function Attrs: mustprogress uwtable
define hidden void @_ZN19OpenColorIO_v2_5dev11Lut3DOpData10Lut3DArrayC2Em(ptr noundef nonnull align 8 dereferenceable(48) initializes((0, 48)) %0, i64 noundef %1) unnamed_addr #3 align 2 personality ptr @__gxx_personality_v0 {
  %3 = getelementptr inbounds nuw i8, ptr %0, i64 8
  tail call void @llvm.memset.p0.i64(ptr noundef nonnull align 8 dereferenceable(40) %3, i8 0, i64 40, i1 false)
  store ptr getelementptr inbounds nuw inrange(-16, 72) (i8, ptr @_ZTVN19OpenColorIO_v2_5dev11Lut3DOpData10Lut3DArrayE, i64 16), ptr %0, align 8, !tbaa !50
  invoke void @_ZN19OpenColorIO_v2_5dev11Lut3DOpData10Lut3DArray6resizeEmm(ptr noundef nonnull align 8 dereferenceable(48) %0, i64 noundef %1, i64 noundef 3)
          to label %4 unwind label %32

4:                                                ; preds = %2
  %5 = load ptr, ptr %0, align 8, !tbaa !50
  %6 = getelementptr inbounds nuw i8, ptr %5, i64 32
  %7 = load ptr, ptr %6, align 8
  %8 = invoke noundef i64 %7(ptr noundef nonnull align 8 dereferenceable(48) %0)
          to label %.noexc unwind label %32

.noexc:                                           ; preds = %4
  %9 = sitofp i64 %8 to float
  %10 = fadd float %9, -1.000000e+00
  %11 = fdiv float 1.000000e+00, %10
  %12 = mul nsw i64 %8, %8
  %13 = mul nsw i64 %12, %8
  %14 = icmp sgt i64 %13, 0
  br i1 %14, label %.lr.ph.i, label %_ZN19OpenColorIO_v2_5dev11Lut3DOpData10Lut3DArray4fillEv.exit

.lr.ph.i:                                         ; preds = %.noexc
  %15 = getelementptr inbounds nuw i8, ptr %0, i64 24
  %16 = load ptr, ptr %15, align 8, !tbaa !81
  %invariant.gep.i = getelementptr inbounds nuw i8, ptr %16, i64 4
  %invariant.gep29.i = getelementptr inbounds nuw i8, ptr %16, i64 8
  br label %17

17:                                               ; preds = %17, %.lr.ph.i
  %.028.i = phi i64 [ 0, %.lr.ph.i ], [ %31, %17 ]
  %18 = sdiv i64 %.028.i, %8
  %19 = sdiv i64 %18, %8
  %20 = srem i64 %19, %8
  %21 = sitofp i64 %20 to float
  %22 = fmul float %11, %21
  %23 = mul nuw nsw i64 %.028.i, 3
  %24 = getelementptr inbounds nuw float, ptr %16, i64 %23
  store float %22, ptr %24, align 4, !tbaa !92
  %25 = srem i64 %18, %8
  %26 = sitofp i64 %25 to float
  %27 = fmul float %11, %26
  %gep.i = getelementptr inbounds nuw float, ptr %invariant.gep.i, i64 %23
  store float %27, ptr %gep.i, align 4, !tbaa !92
  %28 = srem i64 %.028.i, %8
  %29 = uitofp nneg i64 %28 to float
  %30 = fmul float %11, %29
  %gep30.i = getelementptr inbounds nuw float, ptr %invariant.gep29.i, i64 %23
  store float %30, ptr %gep30.i, align 4, !tbaa !92
  %31 = add nuw nsw i64 %.028.i, 1
  %exitcond.not.i = icmp eq i64 %31, %13
  br i1 %exitcond.not.i, label %_ZN19OpenColorIO_v2_5dev11Lut3DOpData10Lut3DArray4fillEv.exit, label %17, !llvm.loop !94

_ZN19OpenColorIO_v2_5dev11Lut3DOpData10Lut3DArray4fillEv.exit: ; preds = %17, %.noexc
  ret void

32:                                               ; preds = %4, %2
  %33 = landingpad { ptr, i32 }
          cleanup
  store ptr getelementptr inbounds nuw inrange(-16, 72) (i8, ptr @_ZTVN19OpenColorIO_v2_5dev6ArrayTIfEE, i64 16), ptr %0, align 8, !tbaa !50
  %34 = getelementptr inbounds nuw i8, ptr %0, i64 24
  %35 = load ptr, ptr %34, align 8, !tbaa !81
  %.not.i.i.i.i = icmp eq ptr %35, null
  br i1 %.not.i.i.i.i, label %_ZN19OpenColorIO_v2_5dev6ArrayTIfED2Ev.exit, label %36

36:                                               ; preds = %32
  %37 = getelementptr inbounds nuw i8, ptr %0, i64 40
  %38 = load ptr, ptr %37, align 8, !tbaa !95
  %39 = ptrtoint ptr %38 to i64
  %40 = ptrtoint ptr %35 to i64
  %41 = sub i64 %39, %40
  tail call void @_ZdlPvm(ptr noundef nonnull %35, i64 noundef %41) #31
  br label %_ZN19OpenColorIO_v2_5dev6ArrayTIfED2Ev.exit

_ZN19OpenColorIO_v2_5dev6ArrayTIfED2Ev.exit:      ; preds = %32, %36
  resume { ptr, i32 } %33
}